; Function Attrs: mustprogress nofree norecurse nosync nounwind willreturn memory(argmem: readwrite) uwtable
define hidden void @_ZN16JfrJavaArguments12set_receiverE6Handle(ptr nocapture noundef nonnull writeonly align 8 dereferenceable(300) %0, ptr readonly %1) local_unnamed_addr #1 align 2 {
  %3 = icmp eq ptr %1, null
  br i1 %3, label %_ZN16JfrJavaArguments10Parameters12set_receiverE6Handle.exit, label %4

4:                                                ; preds = %2
  %5 = load ptr, ptr %1, align 8
  br label %_ZN16JfrJavaArguments10Parameters12set_receiverE6Handle.exit

_ZN16JfrJavaArguments10Parameters12set_receiverE6Handle.exit: ; preds = %2, %4
  %6 = phi ptr [ %5, %4 ], [ null, %2 ]
  store i8 12, ptr %0, align 8
  %.sroa.22.0..sroa_idx.i.i = getelementptr inbounds i8, ptr %0, i64 8
  store ptr %6, ptr %.sroa.22.0..sroa_idx.i.i, align 8
  ret void
}